; Function Attrs: mustprogress uwtable
define internal noundef ptr @"_ZNSt17_Function_handlerIFP4exprP10quantifierjEZN1q6solver9skolemizeES3_E3$_0E9_M_invokeERKSt9_Any_dataOS3_Oj"(ptr nocapture noundef nonnull readonly align 8 dereferenceable(16) %__functor, ptr nocapture noundef nonnull readonly align 8 dereferenceable(8) %__args, ptr nocapture noundef nonnull readonly align 4 dereferenceable(4) %__args1) #3 align 2 {
entry:
  %call.val = load ptr, ptr %__functor, align 8
  %__args.val = load ptr, ptr %__args, align 8
  %__args1.val = load i32, ptr %__args1, align 4
  %0 = getelementptr i8, ptr %call.val, i64 72
  %call.val.val = load ptr, ptr %0, align 8
  %m_patterns_decls.i.i.i.i.i.i = getelementptr inbounds i8, ptr %__args.val, i64 80
  %m_num_decls.i.i.i.i.i = getelementptr inbounds i8, ptr %__args.val, i64 20
  %1 = load i32, ptr %m_num_decls.i.i.i.i.i, align 4
  %idx.ext.i.i.i.i.i = zext i32 %1 to i64
  %add.ptr.i.i.i.i.i = getelementptr inbounds ptr, ptr %m_patterns_decls.i.i.i.i.i.i, i64 %idx.ext.i.i.i.i.i
  %idxprom.i.i.i.i = zext i32 %__args1.val to i64
  %arrayidx.i.i.i.i = getelementptr inbounds %class.symbol, ptr %add.ptr.i.i.i.i.i, i64 %idxprom.i.i.i.i
  %arrayidx.i4.i.i.i = getelementptr inbounds ptr, ptr %m_patterns_decls.i.i.i.i.i.i, i64 %idxprom.i.i.i.i
  %2 = load ptr, ptr %arrayidx.i4.i.i.i, align 8
  %call.i.i.i.i = tail call noundef ptr @_ZN11ast_manager18mk_fresh_func_declERK6symbolS2_jPKP4sortS4_b(ptr noundef nonnull align 8 dereferenceable(976) %call.val.val, ptr noundef nonnull align 8 dereferenceable(8) %arrayidx.i.i.i.i, ptr noundef nonnull align 8 dereferenceable(8) @_ZN6symbol4nullE, i32 noundef 0, ptr noundef null, ptr noundef %2, i1 noundef zeroext true)
  %call.i.i.i.i.i = tail call noundef ptr @_ZN11ast_manager6mk_appEP9func_decljPKP4expr(ptr noundef nonnull align 8 dereferenceable(976) %call.val.val, ptr noundef %call.i.i.i.i, i32 noundef 0, ptr noundef null)
  ret ptr %call.i.i.i.i.i
}